; ModuleID = '61/525.c'
source_filename = "61/525.c"
target datalayout = "e-m:e-p270:32:32-p271:32:32-p272:64:64-i64:64-f80:128-n8:16:32:64-S128"
target triple = "x86_64-pc-linux-gnu"

@.str = private unnamed_addr constant [3 x i8] c"%d\00", align 1
@.str.1 = private unnamed_addr constant [4 x i8] c"%d\0A\00", align 1

; Function Attrs: noinline nounwind uwtable
define dso_local i32 @main() #0 {
  %1 = alloca i32, align 4
  %2 = alloca i32, align 4
  %3 = alloca i32, align 4
  %4 = alloca i32, align 4
  %5 = alloca i32, align 4
  %6 = alloca i32, align 4
  %7 = alloca i32, align 4
  %8 = alloca i32, align 4
  %9 = alloca i32, align 4
  %10 = alloca [30 x i32], align 16
  store i32 0, i32* %1, align 4
  %11 = bitcast [30 x i32]* %10 to i8*
  call void @llvm.memset.p0i8.i64(i8* align 16 %11, i8 0, i64 120, i1 false)
  %12 = call i32 (i8*, ...) @__isoc99_scanf(i8* getelementptr inbounds ([3 x i8], [3 x i8]* @.str, i64 0, i64 0), i32* %4)
  %13 = getelementptr inbounds [30 x i32], [30 x i32]* %10, i64 0, i64 1
  store i32 1, i32* %13, align 4
  %14 = getelementptr inbounds [30 x i32], [30 x i32]* %10, i64 0, i64 2
  store i32 1, i32* %14, align 8
  store i32 3, i32* %6, align 4
  br label %15

15:                                               ; preds = %33, %0
  %16 = load i32, i32* %6, align 4
  %17 = icmp sle i32 %16, 25
  br i1 %17, label %18, label %36

18:                                               ; preds = %15
  %19 = load i32, i32* %6, align 4
  %20 = sub nsw i32 %19, 1
  %21 = sext i32 %20 to i64
  %22 = getelementptr inbounds [30 x i32], [30 x i32]* %10, i64 0, i64 %21
  %23 = load i32, i32* %22, align 4
  %24 = load i32, i32* %6, align 4
  %25 = sub nsw i32 %24, 2
  %26 = sext i32 %25 to i64
  %27 = getelementptr inbounds [30 x i32], [30 x i32]* %10, i64 0, i64 %26
  %28 = load i32, i32* %27, align 4
  %29 = add nsw i32 %23, %28
  %30 = load i32, i32* %6, align 4
  %31 = sext i32 %30 to i64
  %32 = getelementptr inbounds [30 x i32], [30 x i32]* %10, i64 0, i64 %31
  store i32 %29, i32* %32, align 4
  br label %33

33:                                               ; preds = %18
  %34 = load i32, i32* %6, align 4
  %35 = add nsw i32 %34, 1
  store i32 %35, i32* %6, align 4
  br label %15

36:                                               ; preds = %15
  store i32 1, i32* %6, align 4
  br label %37

37:                                               ; preds = %48, %36
  %38 = load i32, i32* %6, align 4
  %39 = load i32, i32* %4, align 4
  %40 = icmp sle i32 %38, %39
  br i1 %40, label %41, label %51

41:                                               ; preds = %37
  %42 = call i32 (i8*, ...) @__isoc99_scanf(i8* getelementptr inbounds ([3 x i8], [3 x i8]* @.str, i64 0, i64 0), i32* %8)
  %43 = load i32, i32* %8, align 4
  %44 = sext i32 %43 to i64
  %45 = getelementptr inbounds [30 x i32], [30 x i32]* %10, i64 0, i64 %44
  %46 = load i32, i32* %45, align 4
  %47 = call i32 (i8*, ...) @printf(i8* getelementptr inbounds ([4 x i8], [4 x i8]* @.str.1, i64 0, i64 0), i32 %46)
  br label %48

48:                                               ; preds = %41
  %49 = load i32, i32* %6, align 4
  %50 = add nsw i32 %49, 1
  store i32 %50, i32* %6, align 4
  br label %37

51:                                               ; preds = %37
  ret i32 0
}

; Function Attrs: argmemonly nounwind willreturn
declare void @llvm.memset.p0i8.i64(i8* nocapture writeonly, i8, i64, i1 immarg) #1

declare dso_local i32 @__isoc99_scanf(i8*, ...) #2

declare dso_local i32 @printf(i8*, ...) #2


!llvm.module.flags = !{!0}
!llvm.ident = !{!1}

!0 = !{i32 1, !"wchar_size", i32 4}
!1 = !{!"clang version 10.0.0-4ubuntu1 "}
